; Function Attrs: mustprogress uwtable
define void @_ZN7rocksdb11FSFileState16DropUnsyncedDataEv(ptr noalias nocapture writeonly sret(%"class.rocksdb::IOStatus") align 8 %agg.result, ptr noundef nonnull align 8 dereferenceable(88) %this) local_unnamed_addr #2 align 2 personality ptr @__gxx_personality_v0 {
entry:
  %buffer_ = getelementptr inbounds i8, ptr %this, i64 56
  tail call void @_ZNSt7__cxx1112basic_stringIcSt11char_traitsIcESaIcEE6resizeEm(ptr noundef nonnull align 8 dereferenceable(32) %buffer_, i64 noundef 0)
  store i8 0, ptr %agg.result, align 8, !alias.scope !4
  %subcode_.i.i.i.i = getelementptr inbounds i8, ptr %agg.result, i64 1
  store i8 0, ptr %subcode_.i.i.i.i, align 1, !alias.scope !4
  %sev_.i.i.i.i = getelementptr inbounds i8, ptr %agg.result, i64 2
  %state_.i.i.i.i = getelementptr inbounds i8, ptr %agg.result, i64 8
  store ptr null, ptr %state_.i.i.i.i, align 8, !alias.scope !4
  store i32 0, ptr %sev_.i.i.i.i, align 2, !alias.scope !4
  ret void
}